; Function Attrs: mustprogress uwtable
define internal fastcc noundef ptr @"_ZZN3tev11ImageViewerC1ERKNSt3__110shared_ptrINS_22BackgroundImagesLoaderEEEbbbENK3$_4clERKNS1_12basic_stringIcNS1_11char_traitsIcEENS1_9allocatorIcEEEENS1_8functionIFvvEEEiSD_"(ptr nocapture readonly %.0.val, ptr noundef nonnull align 8 dereferenceable(24) %0, ptr noundef %1, ptr noundef %2) unnamed_addr #7 align 2 personality ptr @__gxx_personality_v0 {
  %4 = alloca %"class.std::__1::function.50", align 16
  %5 = tail call noalias noundef nonnull dereferenceable(336) ptr @_Znwm(i64 noundef 336) #41
  %6 = load ptr, ptr %.0.val, align 8
  invoke void @_ZN7nanogui6ButtonC1EPNS_6WidgetERKNSt3__112basic_stringIcNS3_11char_traitsIcEENS3_9allocatorIcEEEEi(ptr noundef nonnull align 16 dereferenceable(328) %5, ptr noundef %6, ptr noundef nonnull align 8 dereferenceable(24) %0, i32 noundef 0)
          to label %7 unwind label %37

7:                                                ; preds = %3
  %8 = getelementptr inbounds i8, ptr %5, i64 120
  store i32 15, ptr %8, align 8
  %9 = getelementptr inbounds i8, ptr %5, i64 208
  call void @llvm.lifetime.start.p0(i64 48, ptr nonnull %4)
  %10 = getelementptr inbounds i8, ptr %1, i64 32
  %11 = load ptr, ptr %10, align 16
  %12 = icmp eq ptr %11, null
  br i1 %12, label %13, label %15

13:                                               ; preds = %7
  %14 = getelementptr inbounds i8, ptr %4, i64 32
  store ptr null, ptr %14, align 16
  br label %_ZNSt3__18functionIFvvEEC2ERKS2_.exit.i.i

15:                                               ; preds = %7
  %16 = icmp eq ptr %11, %1
  br i1 %16, label %17, label %22

17:                                               ; preds = %15
  %18 = getelementptr inbounds i8, ptr %4, i64 32
  store ptr %4, ptr %18, align 16
  %19 = load ptr, ptr %1, align 8
  %20 = getelementptr inbounds i8, ptr %19, i64 24
  %21 = load ptr, ptr %20, align 8
  call void %21(ptr noundef nonnull align 8 dereferenceable(8) %1, ptr noundef nonnull %4)
  br label %_ZNSt3__18functionIFvvEEC2ERKS2_.exit.i.i

22:                                               ; preds = %15
  %23 = load ptr, ptr %11, align 8
  %24 = getelementptr inbounds i8, ptr %23, i64 16
  %25 = load ptr, ptr %24, align 8
  %26 = tail call noundef ptr %25(ptr noundef nonnull align 8 dereferenceable(8) %11)
  %27 = getelementptr inbounds i8, ptr %4, i64 32
  store ptr %26, ptr %27, align 16
  br label %_ZNSt3__18functionIFvvEEC2ERKS2_.exit.i.i

_ZNSt3__18functionIFvvEEC2ERKS2_.exit.i.i:        ; preds = %22, %17, %13
  call void @_ZNSt3__110__function12__value_funcIFvvEE4swapB8ne190000ERS3_(ptr noundef nonnull align 16 dereferenceable(40) %4, ptr noundef nonnull align 16 dereferenceable(40) %9) #39
  %28 = getelementptr inbounds i8, ptr %4, i64 32
  %29 = load ptr, ptr %28, align 16
  %30 = icmp eq ptr %29, %4
  br i1 %30, label %.sink.split.i.i.i.i, label %31

31:                                               ; preds = %_ZNSt3__18functionIFvvEEC2ERKS2_.exit.i.i
  %.not.i.i.i.i = icmp eq ptr %29, null
  br i1 %.not.i.i.i.i, label %_ZN7nanogui6Button12set_callbackERKNSt3__18functionIFvvEEE.exit, label %.sink.split.i.i.i.i

.sink.split.i.i.i.i:                              ; preds = %31, %_ZNSt3__18functionIFvvEEC2ERKS2_.exit.i.i
  %.sink5.i.i.i.i = phi ptr [ %4, %_ZNSt3__18functionIFvvEEC2ERKS2_.exit.i.i ], [ %29, %31 ]
  %.sink4.i.i.i.i = phi i64 [ 32, %_ZNSt3__18functionIFvvEEC2ERKS2_.exit.i.i ], [ 40, %31 ]
  %32 = load ptr, ptr %.sink5.i.i.i.i, align 8
  %33 = getelementptr inbounds i8, ptr %32, i64 %.sink4.i.i.i.i
  %34 = load ptr, ptr %33, align 8
  call void %34(ptr noundef nonnull align 8 dereferenceable(8) %.sink5.i.i.i.i) #39
  br label %_ZN7nanogui6Button12set_callbackERKNSt3__18functionIFvvEEE.exit

_ZN7nanogui6Button12set_callbackERKNSt3__18functionIFvvEEE.exit: ; preds = %31, %.sink.split.i.i.i.i
  call void @llvm.lifetime.end.p0(i64 48, ptr nonnull %4)
  %35 = getelementptr inbounds i8, ptr %5, i64 96
  %36 = call noundef nonnull align 8 dereferenceable(24) ptr @_ZNSt3__112basic_stringIcNS_11char_traitsIcEENS_9allocatorIcEEEaSERKS5_(ptr noundef nonnull align 8 dereferenceable(24) %35, ptr noundef nonnull align 8 dereferenceable(24) %2)
  ret ptr %5

37:                                               ; preds = %3
  %38 = landingpad { ptr, i32 }
          cleanup
  tail call void @_ZdlPv(ptr noundef nonnull %5) #40
  resume { ptr, i32 } %38
}